target datalayout = "e-m:e-p270:32:32-p271:32:32-p272:64:64-i64:64-i128:128-f80:128-n8:16:32:64-S128"
target triple = "x86_64-pc-linux-gnu"

%struct.quic_tserver_args_st = type { ptr, ptr, ptr, ptr, ptr, ptr, ptr, ptr, i64 }
%struct.quic_tserver_st = type { %struct.quic_tserver_args_st, ptr, ptr, ptr, ptr, ptr, ptr, ptr, i8 }
%struct.ossl_rtt_info_st = type { %struct.OSSL_TIME, %struct.OSSL_TIME, %struct.OSSL_TIME, %struct.OSSL_TIME }
%struct.OSSL_TIME = type { i64 }
%struct.quic_stream_st = type { %struct.quic_stream_list_node_st, %struct.quic_stream_list_node_st, %struct.quic_stream_list_node_st, ptr, i64, i64, i64, i64, i64, i64, i64, ptr, ptr, %struct.quic_txfc_st, %struct.quic_rxfc_st, i64 }
%struct.quic_stream_list_node_st = type { ptr, ptr }
%struct.quic_txfc_st = type { ptr, i64, i64, i8 }
%struct.quic_rxfc_st = type { i64, i64, i64, i64, i64, i64, i64, %struct.OSSL_TIME, ptr, ptr, ptr, i8, i8, i8, i8 }

; Function Attrs: inlinehint nounwind uwtable
define internal i32 @ossl_quic_stream_has_recv_buffer(ptr noundef %0) #5 {
  %2 = alloca i32, align 4
  %3 = alloca ptr, align 8
  store ptr %0, ptr %3, align 8, !tbaa !80
  %4 = load ptr, ptr %3, align 8, !tbaa !80
  %5 = getelementptr inbounds nuw %struct.quic_stream_st, ptr %4, i32 0, i32 15
  %6 = load i64, ptr %5, align 8
  %7 = lshr i64 %6, 16
  %8 = and i64 %7, 255
  %9 = trunc i64 %8 to i32
  switch i32 %9, label %11 [
    i32 1, label %10
    i32 2, label %10
    i32 3, label %10
  ]

10:                                               ; preds = %1, %1, %1
  store i32 1, ptr %2, align 4
  br label %12

11:                                               ; preds = %1
  store i32 0, ptr %2, align 4
  br label %12

12:                                               ; preds = %11, %10
  %13 = load i32, ptr %2, align 4
  ret i32 %13
}

; Function Attrs: nounwind uwtable
define i32 @ossl_quic_tserver_read(ptr noundef %0, i64 noundef %1, ptr noundef %2, i64 noundef %3, ptr noundef %4) #0 {
  %6 = alloca i32, align 4
  %7 = alloca ptr, align 8
  %8 = alloca i64, align 8
  %9 = alloca ptr, align 8
  %10 = alloca i64, align 8
  %11 = alloca ptr, align 8
  %12 = alloca i32, align 4
  %13 = alloca ptr, align 8
  %14 = alloca i32, align 4
  %15 = alloca i32, align 4
  %16 = alloca %struct.ossl_rtt_info_st, align 8
  store ptr %0, ptr %7, align 8, !tbaa !10
  store i64 %1, ptr %8, align 8, !tbaa !26
  store ptr %2, ptr %9, align 8, !tbaa !8
  store i64 %3, ptr %10, align 8, !tbaa !26
  store ptr %4, ptr %11, align 8, !tbaa !78
  call void @llvm.lifetime.start.p0(i64 4, ptr %12) #6
  store i32 0, ptr %12, align 4, !tbaa !75
  call void @llvm.lifetime.start.p0(i64 8, ptr %13) #6
  %17 = load ptr, ptr %7, align 8, !tbaa !10
  %18 = getelementptr inbounds nuw %struct.quic_tserver_st, ptr %17, i32 0, i32 4
  %19 = load ptr, ptr %18, align 8, !tbaa !52
  %20 = call ptr @ossl_quic_channel_get_qsm(ptr noundef %19)
  %21 = load i64, ptr %8, align 8, !tbaa !26
  %22 = call ptr @ossl_quic_stream_map_get_by_id(ptr noundef %20, i64 noundef %21)
  store ptr %22, ptr %13, align 8, !tbaa !80
  %23 = load ptr, ptr %13, align 8, !tbaa !80
  %24 = icmp eq ptr %23, null
  br i1 %24, label %25, label %42

25:                                               ; preds = %5
  call void @llvm.lifetime.start.p0(i64 4, ptr %14) #6
  %26 = load i64, ptr %8, align 8, !tbaa !26
  %27 = and i64 %26, 1
  %28 = icmp eq i64 %27, 0
  %29 = zext i1 %28 to i32
  store i32 %29, ptr %14, align 4, !tbaa !75
  %30 = load i32, ptr %14, align 4, !tbaa !75
  %31 = icmp ne i32 %30, 0
  br i1 %31, label %32, label %38

32:                                               ; preds = %25
  %33 = load ptr, ptr %7, align 8, !tbaa !10
  %34 = getelementptr inbounds nuw %struct.quic_tserver_st, ptr %33, i32 0, i32 4
  %35 = load ptr, ptr %34, align 8, !tbaa !52
  %36 = call i32 @ossl_quic_channel_is_active(ptr noundef %35)
  %37 = icmp ne i32 %36, 0
  br i1 %37, label %39, label %38

38:                                               ; preds = %32, %25
  store i32 0, ptr %6, align 4
  store i32 1, ptr %15, align 4
  br label %41

39:                                               ; preds = %32
  %40 = load ptr, ptr %11, align 8, !tbaa !78
  store i64 0, ptr %40, align 8, !tbaa !26
  store i32 1, ptr %6, align 4
  store i32 1, ptr %15, align 4
  br label %41

41:                                               ; preds = %39, %38
  call void @llvm.lifetime.end.p0(i64 4, ptr %14) #6
  br label %109

42:                                               ; preds = %5
  %43 = load ptr, ptr %13, align 8, !tbaa !80
  %44 = getelementptr inbounds nuw %struct.quic_stream_st, ptr %43, i32 0, i32 15
  %45 = load i64, ptr %44, align 8
  %46 = lshr i64 %45, 16
  %47 = and i64 %46, 255
  %48 = trunc i64 %47 to i32
  %49 = icmp eq i32 %48, 4
  br i1 %49, label %54, label %50

50:                                               ; preds = %42
  %51 = load ptr, ptr %13, align 8, !tbaa !80
  %52 = call i32 @ossl_quic_stream_has_recv_buffer(ptr noundef %51)
  %53 = icmp ne i32 %52, 0
  br i1 %53, label %55, label %54

54:                                               ; preds = %50, %42
  store i32 0, ptr %6, align 4
  store i32 1, ptr %15, align 4
  br label %109

55:                                               ; preds = %50
  %56 = load ptr, ptr %13, align 8, !tbaa !80
  %57 = getelementptr inbounds nuw %struct.quic_stream_st, ptr %56, i32 0, i32 12
  %58 = load ptr, ptr %57, align 8, !tbaa !82
  %59 = load ptr, ptr %9, align 8, !tbaa !8
  %60 = load i64, ptr %10, align 8, !tbaa !26
  %61 = load ptr, ptr %11, align 8, !tbaa !78
  %62 = call i32 @ossl_quic_rstream_read(ptr noundef %58, ptr noundef %59, i64 noundef %60, ptr noundef %61, ptr noundef %12)
  %63 = icmp ne i32 %62, 0
  br i1 %63, label %65, label %64

64:                                               ; preds = %55
  store i32 0, ptr %6, align 4
  store i32 1, ptr %15, align 4
  br label %109

65:                                               ; preds = %55
  %66 = load ptr, ptr %11, align 8, !tbaa !78
  %67 = load i64, ptr %66, align 8, !tbaa !26
  %68 = icmp ugt i64 %67, 0
  br i1 %68, label %69, label %88

69:                                               ; preds = %65
  call void @llvm.lifetime.start.p0(i64 32, ptr %16) #6
  %70 = load ptr, ptr %7, align 8, !tbaa !10
  %71 = getelementptr inbounds nuw %struct.quic_tserver_st, ptr %70, i32 0, i32 4
  %72 = load ptr, ptr %71, align 8, !tbaa !52
  %73 = call ptr @ossl_quic_channel_get_statm(ptr noundef %72)
  call void @ossl_statm_get_rtt_info(ptr noundef %73, ptr noundef %16)
  %74 = load ptr, ptr %13, align 8, !tbaa !80
  %75 = getelementptr inbounds nuw %struct.quic_stream_st, ptr %74, i32 0, i32 14
  %76 = load ptr, ptr %11, align 8, !tbaa !78
  %77 = load i64, ptr %76, align 8, !tbaa !26
  %78 = getelementptr inbounds nuw %struct.ossl_rtt_info_st, ptr %16, i32 0, i32 0
  %79 = getelementptr inbounds nuw %struct.OSSL_TIME, ptr %78, i32 0, i32 0
  %80 = load i64, ptr %79, align 8
  %81 = call i32 @ossl_quic_rxfc_on_retire(ptr noundef %75, i64 noundef %77, i64 %80)
  %82 = icmp ne i32 %81, 0
  br i1 %82, label %84, label %83

83:                                               ; preds = %69
  store i32 0, ptr %6, align 4
  store i32 1, ptr %15, align 4
  br label %85

84:                                               ; preds = %69
  store i32 0, ptr %15, align 4
  br label %85

85:                                               ; preds = %84, %83
  call void @llvm.lifetime.end.p0(i64 32, ptr %16) #6
  %86 = load i32, ptr %15, align 4
  switch i32 %86, label %109 [
    i32 0, label %87
  ]

87:                                               ; preds = %85
  br label %88

88:                                               ; preds = %87, %65
  %89 = load i32, ptr %12, align 4, !tbaa !75
  %90 = icmp ne i32 %89, 0
  br i1 %90, label %91, label %98

91:                                               ; preds = %88
  %92 = load ptr, ptr %7, align 8, !tbaa !10
  %93 = getelementptr inbounds nuw %struct.quic_tserver_st, ptr %92, i32 0, i32 4
  %94 = load ptr, ptr %93, align 8, !tbaa !52
  %95 = call ptr @ossl_quic_channel_get_qsm(ptr noundef %94)
  %96 = load ptr, ptr %13, align 8, !tbaa !80
  %97 = call i32 @ossl_quic_stream_map_notify_totally_read(ptr noundef %95, ptr noundef %96)
  br label %98

98:                                               ; preds = %91, %88
  %99 = load ptr, ptr %11, align 8, !tbaa !78
  %100 = load i64, ptr %99, align 8, !tbaa !26
  %101 = icmp ugt i64 %100, 0
  br i1 %101, label %102, label %108

102:                                              ; preds = %98
  %103 = load ptr, ptr %7, align 8, !tbaa !10
  %104 = getelementptr inbounds nuw %struct.quic_tserver_st, ptr %103, i32 0, i32 4
  %105 = load ptr, ptr %104, align 8, !tbaa !52
  %106 = call ptr @ossl_quic_channel_get_qsm(ptr noundef %105)
  %107 = load ptr, ptr %13, align 8, !tbaa !80
  call void @ossl_quic_stream_map_update_state(ptr noundef %106, ptr noundef %107)
  br label %108

108:                                              ; preds = %102, %98
  store i32 1, ptr %6, align 4
  store i32 1, ptr %15, align 4
  br label %109

109:                                              ; preds = %108, %85, %64, %54, %41
  call void @llvm.lifetime.end.p0(i64 8, ptr %13) #6
  call void @llvm.lifetime.end.p0(i64 4, ptr %12) #6
  %110 = load i32, ptr %6, align 4
  ret i32 %110
}