; Function Attrs: nounwind uwtable
define range(i32 0, 2) i32 @ossl_quic_tserver_read(ptr noundef readonly captures(none) %0, i64 noundef %1, ptr noundef %2, i64 noundef %3, ptr noundef %4) local_unnamed_addr #0 {
  %6 = alloca i32, align 4
  %7 = alloca %struct.ossl_rtt_info_st, align 8
  call void @llvm.lifetime.start.p0(i64 4, ptr nonnull %6) #6
  store i32 0, ptr %6, align 4, !tbaa !68
  %8 = getelementptr inbounds nuw i8, ptr %0, i64 96
  %9 = load ptr, ptr %8, align 8, !tbaa !46
  %10 = tail call ptr @ossl_quic_channel_get_qsm(ptr noundef %9) #6
  %11 = tail call ptr @ossl_quic_stream_map_get_by_id(ptr noundef %10, i64 noundef %1) #6
  %12 = icmp eq ptr %11, null
  br i1 %12, label %13, label %20

13:                                               ; preds = %5
  %14 = and i64 %1, 1
  %15 = icmp eq i64 %14, 0
  br i1 %15, label %16, label %52

16:                                               ; preds = %13
  %17 = load ptr, ptr %8, align 8, !tbaa !46
  %18 = tail call i32 @ossl_quic_channel_is_active(ptr noundef %17) #6
  %.not30 = icmp eq i32 %18, 0
  br i1 %.not30, label %52, label %19

19:                                               ; preds = %16
  store i64 0, ptr %4, align 8, !tbaa !20
  br label %52

20:                                               ; preds = %5
  %21 = getelementptr inbounds nuw i8, ptr %11, i64 256
  %22 = load i64, ptr %21, align 8
  %23 = and i64 %22, 16711680
  %24 = icmp eq i64 %23, 262144
  br i1 %24, label %52, label %25

25:                                               ; preds = %20
  %26 = lshr i64 %22, 16
  %trunc.i = trunc i64 %26 to i8
  %27 = add i8 %trunc.i, -4
  %switch.i = icmp ult i8 %27, -3
  br i1 %switch.i, label %52, label %28

28:                                               ; preds = %25
  %29 = getelementptr inbounds nuw i8, ptr %11, i64 120
  %30 = load ptr, ptr %29, align 8, !tbaa !69
  %31 = call i32 @ossl_quic_rstream_read(ptr noundef %30, ptr noundef %2, i64 noundef %3, ptr noundef %4, ptr noundef nonnull %6) #6
  %.not25 = icmp eq i32 %31, 0
  br i1 %.not25, label %52, label %32

32:                                               ; preds = %28
  %33 = load i64, ptr %4, align 8, !tbaa !20
  %.not26 = icmp eq i64 %33, 0
  br i1 %.not26, label %41, label %34

34:                                               ; preds = %32
  call void @llvm.lifetime.start.p0(i64 32, ptr nonnull %7) #6
  %35 = load ptr, ptr %8, align 8, !tbaa !46
  %36 = call ptr @ossl_quic_channel_get_statm(ptr noundef %35) #6
  call void @ossl_statm_get_rtt_info(ptr noundef %36, ptr noundef nonnull %7) #6
  %37 = getelementptr inbounds nuw i8, ptr %11, i64 160
  %38 = load i64, ptr %4, align 8, !tbaa !20
  %39 = load i64, ptr %7, align 8
  %40 = call i32 @ossl_quic_rxfc_on_retire(ptr noundef nonnull %37, i64 noundef %38, i64 %39) #6
  %.not27.not = icmp eq i32 %40, 0
  call void @llvm.lifetime.end.p0(i64 32, ptr nonnull %7) #6
  br i1 %.not27.not, label %52, label %41

41:                                               ; preds = %34, %32
  %42 = load i32, ptr %6, align 4, !tbaa !68
  %.not28 = icmp eq i32 %42, 0
  br i1 %.not28, label %47, label %43

43:                                               ; preds = %41
  %44 = load ptr, ptr %8, align 8, !tbaa !46
  %45 = call ptr @ossl_quic_channel_get_qsm(ptr noundef %44) #6
  %46 = call i32 @ossl_quic_stream_map_notify_totally_read(ptr noundef %45, ptr noundef nonnull %11) #6
  br label %47

47:                                               ; preds = %43, %41
  %48 = load i64, ptr %4, align 8, !tbaa !20
  %.not29 = icmp eq i64 %48, 0
  br i1 %.not29, label %52, label %49

49:                                               ; preds = %47
  %50 = load ptr, ptr %8, align 8, !tbaa !46
  %51 = call ptr @ossl_quic_channel_get_qsm(ptr noundef %50) #6
  call void @ossl_quic_stream_map_update_state(ptr noundef %51, ptr noundef nonnull %11) #6
  br label %52

52:                                               ; preds = %47, %49, %28, %20, %25, %19, %16, %13, %34
  %.1 = phi i32 [ 0, %34 ], [ 1, %19 ], [ 0, %16 ], [ 0, %13 ], [ 0, %25 ], [ 0, %20 ], [ 0, %28 ], [ 1, %49 ], [ 1, %47 ]
  call void @llvm.lifetime.end.p0(i64 4, ptr nonnull %6) #6
  ret i32 %.1
}